target datalayout = "e-m:e-p270:32:32-p271:32:32-p272:64:64-i64:64-i128:128-f80:128-n8:16:32:64-S128"
target triple = "x86_64-pc-linux-gnu"

%union.pthread_mutex_t = type { %struct.__pthread_mutex_s }
%struct.__pthread_mutex_s = type { i32, i32, i32, i32, i32, i16, i16, %struct.__pthread_internal_list }
%struct.__pthread_internal_list = type { ptr, ptr }
%union.pthread_cond_t = type { %struct.__pthread_cond_s }
%struct.__pthread_cond_s = type { %union.__atomic_wide_counter, %union.__atomic_wide_counter, [2 x i32], [2 x i32], i32, i32, [2 x i32] }
%union.__atomic_wide_counter = type { i64 }
%struct.slurm_conf_t = type { i64, ptr, i16, ptr, ptr, ptr, ptr, ptr, i16, ptr, ptr, ptr, ptr, ptr, ptr, ptr, i16, ptr, ptr, ptr, ptr, i16, ptr, ptr, ptr, i64, ptr, ptr, ptr, ptr, i16, ptr, ptr, i16, i32, ptr, i32, ptr, i32, i32, ptr, ptr, i64, i64, ptr, i16, i16, ptr, i32, i32, ptr, i32, ptr, i32, i16, i16, i16, ptr, i16, i16, ptr, ptr, i32, i16, i16, ptr, i32, i16, ptr, ptr, ptr, ptr, i16, ptr, ptr, ptr, ptr, i32, ptr, ptr, ptr, ptr, i16, i16, ptr, i32, i32, i32, i16, i16, ptr, ptr, i16, ptr, ptr, i32, i32, i32, i32, i32, i64, i32, i32, i16, ptr, ptr, i32, ptr, ptr, ptr, i16, i32, ptr, ptr, i16, ptr, ptr, i32, i16, ptr, ptr, ptr, ptr, i32, i32, i16, i16, i32, ptr, i16, ptr, i32, i32, i32, i32, i32, i32, ptr, i16, ptr, ptr, i32, i16, ptr, i32, i16, i16, ptr, ptr, ptr, i16, ptr, ptr, ptr, ptr, i16, i16, ptr, i16, ptr, i16, ptr, i16, ptr, i16, ptr, ptr, ptr, ptr, i16, ptr, ptr, ptr, i32, ptr, i32, ptr, ptr, i16, ptr, ptr, i32, i16, ptr, ptr, i16, i16, ptr, i16, ptr, ptr, ptr, i32, ptr, i16, i16, ptr, ptr, ptr, ptr, ptr, ptr, ptr, ptr, i16, i32, i16, ptr, ptr, ptr, ptr, i32, ptr, ptr, ptr, i16, ptr, ptr, ptr, i16, ptr, i16, ptr, i16, i16, ptr }
%struct.log_options_t = type { i32, i32, i32, i8, i8, i8, i32 }
%struct.slurmd_config = type { ptr, ptr, i32, [4096 x i8], ptr, ptr, ptr, ptr, i16, i16, i16, i16, ptr, i16, i64, i16, i16, i16, i16, i16, i16, i16, i16, i16, i16, i16, i64, i64, i32, i32, i16, ptr, ptr, ptr, i32, ptr, ptr, ptr, ptr, ptr, ptr, ptr, ptr, ptr, ptr, i32, ptr, ptr, i16, i32, i32, %struct.log_options_t, i32, i16, i64, i8, i8, i8, i8, i8, %union.pthread_mutex_t, i16, ptr, %union.pthread_cond_t, ptr, %union.pthread_cond_t, i8, i8, ptr, ptr }
%struct.node_config_load_t = type { i32, ptr, i8, ptr }

@conf = dso_local global ptr null, align 8
@slurm_conf = external global %struct.slurm_conf_t, align 8
@.str.133 = private unnamed_addr constant [1 x i8] zeroinitializer, align 1
@__const._print_config.node_conf = private unnamed_addr constant { i32, [4 x i8], ptr, i8, [7 x i8], ptr } { i32 0, [4 x i8] zeroinitializer, ptr @.str.138, i8 1, [7 x i8] zeroinitializer, ptr @xcpuinfo_mac_to_abs }, align 8
@default_plugin_path = external global ptr, align 8
@.str.139 = private unnamed_addr constant [105 x i8] c"NodeName=%s CPUs=%u Boards=%u SocketsPerBoard=%u CoresPerSocket=%u ThreadsPerCore=%u RealMemory=%lu%s%s\0A\00", align 1
@.str.140 = private unnamed_addr constant [7 x i8] c" Gres=\00", align 1
@.str.141 = private unnamed_addr constant [4 x i8] c"%s\0A\00", align 1
@.str.142 = private unnamed_addr constant [29 x i8] c"UpTime=%u-%2.2u:%2.2u:%2.2u\0A\00", align 1

; Function Attrs: nounwind uwtable
define internal void @_print_config() #0 {
  %1 = alloca i32, align 4
  %2 = alloca i32, align 4
  %3 = alloca i32, align 4
  %4 = alloca i32, align 4
  %5 = alloca [128 x i8], align 16
  %6 = alloca ptr, align 8
  %7 = alloca ptr, align 8
  %8 = alloca %struct.node_config_load_t, align 8
  %9 = alloca %struct.log_options_t, align 8
  call void @llvm.lifetime.start.p0(i64 4, ptr %1) #11
  call void @llvm.lifetime.start.p0(i64 4, ptr %2) #11
  call void @llvm.lifetime.start.p0(i64 4, ptr %3) #11
  call void @llvm.lifetime.start.p0(i64 4, ptr %4) #11
  call void @llvm.lifetime.start.p0(i64 128, ptr %5) #11
  call void @llvm.lifetime.start.p0(i64 8, ptr %6) #11
  store ptr null, ptr %6, align 8
  call void @llvm.lifetime.start.p0(i64 8, ptr %7) #11
  store ptr null, ptr %7, align 8
  call void @llvm.lifetime.start.p0(i64 32, ptr %8) #11
  call void @llvm.memcpy.p0.p0.i64(ptr align 8 %8, ptr align 8 @__const._print_config.node_conf, i64 32, i1 false)
  %10 = load ptr, ptr @conf, align 8
  %11 = getelementptr inbounds nuw %struct.slurmd_config, ptr %10, i32 0, i32 51
  %12 = getelementptr inbounds nuw %struct.log_options_t, ptr %11, i32 0, i32 2
  store i32 0, ptr %12, align 4
  %13 = load ptr, ptr @conf, align 8
  %14 = getelementptr inbounds nuw %struct.slurmd_config, ptr %13, i32 0, i32 51
  %15 = getelementptr inbounds nuw %struct.log_options_t, ptr %14, i32 0, i32 1
  store i32 0, ptr %15, align 4
  %16 = load ptr, ptr @conf, align 8
  %17 = getelementptr inbounds nuw %struct.slurmd_config, ptr %16, i32 0, i32 53
  %18 = load i16, ptr %17, align 4
  %19 = icmp ne i16 %18, 0
  br i1 %19, label %20, label %27

20:                                               ; preds = %0
  %21 = load ptr, ptr @conf, align 8
  %22 = getelementptr inbounds nuw %struct.slurmd_config, ptr %21, i32 0, i32 52
  %23 = load i32, ptr %22, align 8
  %24 = load ptr, ptr @conf, align 8
  %25 = getelementptr inbounds nuw %struct.slurmd_config, ptr %24, i32 0, i32 51
  %26 = getelementptr inbounds nuw %struct.log_options_t, ptr %25, i32 0, i32 0
  store i32 %23, ptr %26, align 4
  br label %31

27:                                               ; preds = %0
  %28 = load ptr, ptr @conf, align 8
  %29 = getelementptr inbounds nuw %struct.slurmd_config, ptr %28, i32 0, i32 51
  %30 = getelementptr inbounds nuw %struct.log_options_t, ptr %29, i32 0, i32 0
  store i32 1, ptr %30, align 4
  br label %31

31:                                               ; preds = %27, %20
  %32 = load ptr, ptr @conf, align 8
  %33 = getelementptr inbounds nuw %struct.slurmd_config, ptr %32, i32 0, i32 51
  call void @llvm.lifetime.start.p0(i64 20, ptr %9) #11
  call void @llvm.memcpy.p0.p0.i64(ptr align 8 %9, ptr align 4 %33, i64 20, i1 false)
  %34 = call i32 @log_alter(ptr noundef byval(%struct.log_options_t) align 8 %9, i32 noundef 8, ptr noundef null)
  call void @llvm.lifetime.end.p0(i64 20, ptr %9) #11
  %35 = getelementptr inbounds [128 x i8], ptr %5, i64 0, i64 0
  %36 = call i32 @gethostname_short(ptr noundef %35, i64 noundef 128)
  %37 = load ptr, ptr @conf, align 8
  %38 = getelementptr inbounds nuw %struct.slurmd_config, ptr %37, i32 0, i32 21
  %39 = load ptr, ptr @conf, align 8
  %40 = getelementptr inbounds nuw %struct.slurmd_config, ptr %39, i32 0, i32 22
  %41 = load ptr, ptr @conf, align 8
  %42 = getelementptr inbounds nuw %struct.slurmd_config, ptr %41, i32 0, i32 23
  %43 = load ptr, ptr @conf, align 8
  %44 = getelementptr inbounds nuw %struct.slurmd_config, ptr %43, i32 0, i32 24
  %45 = load ptr, ptr @conf, align 8
  %46 = getelementptr inbounds nuw %struct.slurmd_config, ptr %45, i32 0, i32 25
  %47 = load ptr, ptr @conf, align 8
  %48 = getelementptr inbounds nuw %struct.slurmd_config, ptr %47, i32 0, i32 30
  %49 = load ptr, ptr @conf, align 8
  %50 = getelementptr inbounds nuw %struct.slurmd_config, ptr %49, i32 0, i32 31
  %51 = load ptr, ptr @conf, align 8
  %52 = getelementptr inbounds nuw %struct.slurmd_config, ptr %51, i32 0, i32 32
  %53 = call i32 @xcpuinfo_hwloc_topo_get(ptr noundef %38, ptr noundef %40, ptr noundef %42, ptr noundef %44, ptr noundef %46, ptr noundef %48, ptr noundef %50, ptr noundef %52)
  %54 = load ptr, ptr @conf, align 8
  %55 = getelementptr inbounds nuw %struct.slurmd_config, ptr %54, i32 0, i32 21
  %56 = load i16, ptr %55, align 4
  %57 = load ptr, ptr @conf, align 8
  %58 = getelementptr inbounds nuw %struct.slurmd_config, ptr %57, i32 0, i32 8
  store i16 %56, ptr %58, align 8
  %59 = load ptr, ptr @conf, align 8
  %60 = getelementptr inbounds nuw %struct.slurmd_config, ptr %59, i32 0, i32 22
  %61 = load i16, ptr %60, align 2
  %62 = load ptr, ptr @conf, align 8
  %63 = getelementptr inbounds nuw %struct.slurmd_config, ptr %62, i32 0, i32 9
  store i16 %61, ptr %63, align 2
  %64 = load ptr, ptr @conf, align 8
  %65 = getelementptr inbounds nuw %struct.slurmd_config, ptr %64, i32 0, i32 23
  %66 = load i16, ptr %65, align 8
  %67 = load ptr, ptr @conf, align 8
  %68 = getelementptr inbounds nuw %struct.slurmd_config, ptr %67, i32 0, i32 10
  store i16 %66, ptr %68, align 4
  %69 = load ptr, ptr @conf, align 8
  %70 = getelementptr inbounds nuw %struct.slurmd_config, ptr %69, i32 0, i32 24
  %71 = load i16, ptr %70, align 2
  %72 = load ptr, ptr @conf, align 8
  %73 = getelementptr inbounds nuw %struct.slurmd_config, ptr %72, i32 0, i32 15
  store i16 %71, ptr %73, align 8
  %74 = load ptr, ptr @conf, align 8
  %75 = getelementptr inbounds nuw %struct.slurmd_config, ptr %74, i32 0, i32 25
  %76 = load i16, ptr %75, align 4
  %77 = load ptr, ptr @conf, align 8
  %78 = getelementptr inbounds nuw %struct.slurmd_config, ptr %77, i32 0, i32 11
  store i16 %76, ptr %78, align 2
  %79 = load ptr, ptr @conf, align 8
  %80 = getelementptr inbounds nuw %struct.slurmd_config, ptr %79, i32 0, i32 21
  %81 = load i16, ptr %80, align 4
  %82 = zext i16 %81 to i32
  %83 = load ptr, ptr @conf, align 8
  %84 = getelementptr inbounds nuw %struct.slurmd_config, ptr %83, i32 0, i32 30
  %85 = load i16, ptr %84, align 8
  %86 = zext i16 %85 to i32
  %87 = icmp sgt i32 %82, %86
  br i1 %87, label %88, label %93

88:                                               ; preds = %31
  %89 = load ptr, ptr @conf, align 8
  %90 = getelementptr inbounds nuw %struct.slurmd_config, ptr %89, i32 0, i32 21
  %91 = load i16, ptr %90, align 4
  %92 = zext i16 %91 to i32
  br label %98

93:                                               ; preds = %31
  %94 = load ptr, ptr @conf, align 8
  %95 = getelementptr inbounds nuw %struct.slurmd_config, ptr %94, i32 0, i32 30
  %96 = load i16, ptr %95, align 8
  %97 = zext i16 %96 to i32
  br label %98

98:                                               ; preds = %93, %88
  %99 = phi i32 [ %92, %88 ], [ %97, %93 ]
  %100 = getelementptr inbounds nuw %struct.node_config_load_t, ptr %8, i32 0, i32 0
  store i32 %99, ptr %100, align 8
  %101 = load ptr, ptr @default_plugin_path, align 8
  %102 = call ptr @xstrdup(ptr noundef %101)
  store ptr %102, ptr getelementptr inbounds nuw (%struct.slurm_conf_t, ptr @slurm_conf, i32 0, i32 115), align 8
  call void @gres_get_autodetected_gpus(ptr noundef byval(%struct.node_config_load_t) align 8 %8, ptr noundef %6, ptr noundef %7)
  %103 = load ptr, ptr @conf, align 8
  %104 = getelementptr inbounds nuw %struct.slurmd_config, ptr %103, i32 0, i32 27
  %105 = call i32 @get_memory(ptr noundef %104)
  %106 = getelementptr inbounds [128 x i8], ptr %5, i64 0, i64 0
  %107 = load ptr, ptr @conf, align 8
  %108 = getelementptr inbounds nuw %struct.slurmd_config, ptr %107, i32 0, i32 21
  %109 = load i16, ptr %108, align 4
  %110 = zext i16 %109 to i32
  %111 = load ptr, ptr @conf, align 8
  %112 = getelementptr inbounds nuw %struct.slurmd_config, ptr %111, i32 0, i32 22
  %113 = load i16, ptr %112, align 2
  %114 = zext i16 %113 to i32
  %115 = load ptr, ptr @conf, align 8
  %116 = getelementptr inbounds nuw %struct.slurmd_config, ptr %115, i32 0, i32 23
  %117 = load i16, ptr %116, align 8
  %118 = zext i16 %117 to i32
  %119 = load ptr, ptr @conf, align 8
  %120 = getelementptr inbounds nuw %struct.slurmd_config, ptr %119, i32 0, i32 22
  %121 = load i16, ptr %120, align 2
  %122 = zext i16 %121 to i32
  %123 = sdiv i32 %118, %122
  %124 = load ptr, ptr @conf, align 8
  %125 = getelementptr inbounds nuw %struct.slurmd_config, ptr %124, i32 0, i32 24
  %126 = load i16, ptr %125, align 2
  %127 = zext i16 %126 to i32
  %128 = load ptr, ptr @conf, align 8
  %129 = getelementptr inbounds nuw %struct.slurmd_config, ptr %128, i32 0, i32 25
  %130 = load i16, ptr %129, align 4
  %131 = zext i16 %130 to i32
  %132 = load ptr, ptr @conf, align 8
  %133 = getelementptr inbounds nuw %struct.slurmd_config, ptr %132, i32 0, i32 27
  %134 = load i64, ptr %133, align 8
  %135 = load ptr, ptr %6, align 8
  %136 = icmp ne ptr %135, null
  %137 = select i1 %136, ptr @.str.140, ptr @.str.133
  %138 = load ptr, ptr %6, align 8
  %139 = icmp ne ptr %138, null
  br i1 %139, label %140, label %142

140:                                              ; preds = %98
  %141 = load ptr, ptr %6, align 8
  br label %143

142:                                              ; preds = %98
  br label %143

143:                                              ; preds = %142, %140
  %144 = phi ptr [ %141, %140 ], [ @.str.133, %142 ]
  %145 = call i32 (ptr, ...) @printf(ptr noundef @.str.139, ptr noundef %106, i32 noundef %110, i32 noundef %114, i32 noundef %123, i32 noundef %127, i32 noundef %131, i64 noundef %134, ptr noundef %137, ptr noundef %144)
  %146 = load ptr, ptr %7, align 8
  %147 = icmp ne ptr %146, null
  br i1 %147, label %148, label %151

148:                                              ; preds = %143
  %149 = load ptr, ptr %7, align 8
  %150 = call i32 (ptr, ...) @printf(ptr noundef @.str.141, ptr noundef %149)
  br label %151

151:                                              ; preds = %148, %143
  %152 = load ptr, ptr @conf, align 8
  %153 = getelementptr inbounds nuw %struct.slurmd_config, ptr %152, i32 0, i32 29
  %154 = call i32 @get_up_time(ptr noundef %153)
  %155 = load ptr, ptr @conf, align 8
  %156 = getelementptr inbounds nuw %struct.slurmd_config, ptr %155, i32 0, i32 29
  %157 = load i32, ptr %156, align 4
  %158 = urem i32 %157, 60
  store i32 %158, ptr %4, align 4
  %159 = load ptr, ptr @conf, align 8
  %160 = getelementptr inbounds nuw %struct.slurmd_config, ptr %159, i32 0, i32 29
  %161 = load i32, ptr %160, align 4
  %162 = udiv i32 %161, 60
  %163 = urem i32 %162, 60
  store i32 %163, ptr %3, align 4
  %164 = load ptr, ptr @conf, align 8
  %165 = getelementptr inbounds nuw %struct.slurmd_config, ptr %164, i32 0, i32 29
  %166 = load i32, ptr %165, align 4
  %167 = udiv i32 %166, 3600
  %168 = urem i32 %167, 24
  store i32 %168, ptr %2, align 4
  %169 = load ptr, ptr @conf, align 8
  %170 = getelementptr inbounds nuw %struct.slurmd_config, ptr %169, i32 0, i32 29
  %171 = load i32, ptr %170, align 4
  %172 = udiv i32 %171, 86400
  store i32 %172, ptr %1, align 4
  %173 = load i32, ptr %1, align 4
  %174 = load i32, ptr %2, align 4
  %175 = load i32, ptr %3, align 4
  %176 = load i32, ptr %4, align 4
  %177 = call i32 (ptr, ...) @printf(ptr noundef @.str.142, i32 noundef %173, i32 noundef %174, i32 noundef %175, i32 noundef %176)
  call void @llvm.lifetime.end.p0(i64 32, ptr %8) #11
  call void @llvm.lifetime.end.p0(i64 8, ptr %7) #11
  call void @llvm.lifetime.end.p0(i64 8, ptr %6) #11
  call void @llvm.lifetime.end.p0(i64 128, ptr %5) #11
  call void @llvm.lifetime.end.p0(i64 4, ptr %4) #11
  call void @llvm.lifetime.end.p0(i64 4, ptr %3) #11
  call void @llvm.lifetime.end.p0(i64 4, ptr %2) #11
  call void @llvm.lifetime.end.p0(i64 4, ptr %1) #11
  ret void
}