; Function Attrs: nounwind uwtable
define internal fastcc void @_print_config() unnamed_addr #0 {
  %1 = alloca [128 x i8], align 16
  %2 = alloca ptr, align 8
  %3 = alloca ptr, align 8
  %4 = alloca %struct.node_config_load_t, align 8
  %5 = alloca %struct.log_options_t, align 8
  call void @llvm.lifetime.start.p0(i64 128, ptr nonnull %1) #18
  call void @llvm.lifetime.start.p0(i64 8, ptr nonnull %2) #18
  store ptr null, ptr %2, align 8
  call void @llvm.lifetime.start.p0(i64 8, ptr nonnull %3) #18
  store ptr null, ptr %3, align 8
  call void @llvm.lifetime.start.p0(i64 32, ptr nonnull %4) #18
  call void @llvm.memcpy.p0.p0.i64(ptr noundef nonnull align 8 dereferenceable(32) %4, ptr noundef nonnull align 8 dereferenceable(32) @__const._print_config.node_conf, i64 32, i1 false)
  %6 = load ptr, ptr @conf, align 8
  %7 = getelementptr inbounds nuw i8, ptr %6, i64 4396
  store i32 0, ptr %7, align 4
  %8 = getelementptr inbounds nuw i8, ptr %6, i64 4392
  store i32 0, ptr %8, align 4
  %9 = getelementptr inbounds nuw i8, ptr %6, i64 4412
  %10 = load i16, ptr %9, align 4
  %.not = icmp eq i16 %10, 0
  br i1 %.not, label %14, label %11

11:                                               ; preds = %0
  %12 = getelementptr inbounds nuw i8, ptr %6, i64 4408
  %13 = load i32, ptr %12, align 8
  br label %14

14:                                               ; preds = %0, %11
  %.sink = phi i32 [ %13, %11 ], [ 1, %0 ]
  %15 = getelementptr inbounds nuw i8, ptr %6, i64 4388
  store i32 %.sink, ptr %15, align 4
  call void @llvm.lifetime.start.p0(i64 20, ptr nonnull %5) #18
  call void @llvm.memcpy.p0.p0.i64(ptr noundef nonnull align 8 dereferenceable(20) %5, ptr noundef nonnull align 4 dereferenceable(20) %15, i64 20, i1 false)
  %16 = tail call i32 @log_alter(ptr noundef nonnull byval(%struct.log_options_t) align 8 %5, i32 noundef 8, ptr noundef null) #18
  call void @llvm.lifetime.end.p0(i64 20, ptr nonnull %5) #18
  %17 = call i32 @gethostname_short(ptr noundef nonnull %1, i64 noundef 128) #18
  %18 = load ptr, ptr @conf, align 8
  %19 = getelementptr inbounds nuw i8, ptr %18, i64 4196
  %20 = getelementptr inbounds nuw i8, ptr %18, i64 4198
  %21 = getelementptr inbounds nuw i8, ptr %18, i64 4200
  %22 = getelementptr inbounds nuw i8, ptr %18, i64 4202
  %23 = getelementptr inbounds nuw i8, ptr %18, i64 4204
  %24 = getelementptr inbounds nuw i8, ptr %18, i64 4232
  %25 = getelementptr inbounds nuw i8, ptr %18, i64 4240
  %26 = getelementptr inbounds nuw i8, ptr %18, i64 4248
  %27 = call i32 @xcpuinfo_hwloc_topo_get(ptr noundef nonnull %19, ptr noundef nonnull %20, ptr noundef nonnull %21, ptr noundef nonnull %22, ptr noundef nonnull %23, ptr noundef nonnull %24, ptr noundef nonnull %25, ptr noundef nonnull %26) #18
  %28 = load ptr, ptr @conf, align 8
  %29 = getelementptr inbounds nuw i8, ptr %28, i64 4196
  %30 = load i16, ptr %29, align 4
  %31 = getelementptr inbounds nuw i8, ptr %28, i64 4152
  store i16 %30, ptr %31, align 8
  %32 = getelementptr inbounds nuw i8, ptr %28, i64 4198
  %33 = load i16, ptr %32, align 2
  %34 = getelementptr inbounds nuw i8, ptr %28, i64 4154
  store i16 %33, ptr %34, align 2
  %35 = getelementptr inbounds nuw i8, ptr %28, i64 4200
  %36 = load i16, ptr %35, align 8
  %37 = getelementptr inbounds nuw i8, ptr %28, i64 4156
  store i16 %36, ptr %37, align 4
  %38 = getelementptr inbounds nuw i8, ptr %28, i64 4202
  %39 = load i16, ptr %38, align 2
  %40 = getelementptr inbounds nuw i8, ptr %28, i64 4184
  store i16 %39, ptr %40, align 8
  %41 = getelementptr inbounds nuw i8, ptr %28, i64 4204
  %42 = load i16, ptr %41, align 4
  %43 = getelementptr inbounds nuw i8, ptr %28, i64 4158
  store i16 %42, ptr %43, align 2
  %44 = getelementptr inbounds nuw i8, ptr %28, i64 4232
  %45 = load i16, ptr %44, align 8
  %. = call i16 @llvm.umax.i16(i16 %30, i16 %45)
  %46 = zext i16 %. to i32
  store i32 %46, ptr %4, align 8
  %47 = load ptr, ptr @default_plugin_path, align 8
  %48 = call ptr @xstrdup(ptr noundef %47) #18
  store ptr %48, ptr getelementptr inbounds nuw (i8, ptr @slurm_conf, i64 776), align 8
  call void @gres_get_autodetected_gpus(ptr noundef nonnull byval(%struct.node_config_load_t) align 8 %4, ptr noundef nonnull %2, ptr noundef nonnull %3) #18
  %49 = load ptr, ptr @conf, align 8
  %50 = getelementptr inbounds nuw i8, ptr %49, i64 4216
  %51 = call i32 @get_memory(ptr noundef nonnull %50) #18
  %52 = load ptr, ptr @conf, align 8
  %53 = getelementptr inbounds nuw i8, ptr %52, i64 4196
  %54 = load i16, ptr %53, align 4
  %55 = zext i16 %54 to i32
  %56 = getelementptr inbounds nuw i8, ptr %52, i64 4198
  %57 = load i16, ptr %56, align 2
  %58 = zext i16 %57 to i32
  %59 = getelementptr inbounds nuw i8, ptr %52, i64 4200
  %60 = load i16, ptr %59, align 8
  %61 = udiv i16 %60, %57
  %62 = zext i16 %61 to i32
  %63 = getelementptr inbounds nuw i8, ptr %52, i64 4202
  %64 = load i16, ptr %63, align 2
  %65 = zext i16 %64 to i32
  %66 = getelementptr inbounds nuw i8, ptr %52, i64 4204
  %67 = load i16, ptr %66, align 4
  %68 = zext i16 %67 to i32
  %69 = getelementptr inbounds nuw i8, ptr %52, i64 4216
  %70 = load i64, ptr %69, align 8
  %71 = load ptr, ptr %2, align 8
  %.not6 = icmp eq ptr %71, null
  %72 = select i1 %.not6, ptr @.str.133, ptr @.str.140
  %73 = select i1 %.not6, ptr @.str.133, ptr %71
  %74 = call i32 (ptr, ...) @printf(ptr noundef nonnull dereferenceable(1) @.str.139, ptr noundef nonnull %1, i32 noundef %55, i32 noundef %58, i32 noundef %62, i32 noundef %65, i32 noundef %68, i64 noundef %70, ptr noundef nonnull %72, ptr noundef nonnull %73)
  %75 = load ptr, ptr %3, align 8
  %.not7 = icmp eq ptr %75, null
  br i1 %.not7, label %77, label %76

76:                                               ; preds = %14
  %puts = call i32 @puts(ptr nonnull dereferenceable(1) %75)
  br label %77

77:                                               ; preds = %76, %14
  %78 = load ptr, ptr @conf, align 8
  %79 = getelementptr inbounds nuw i8, ptr %78, i64 4228
  %80 = call i32 @get_up_time(ptr noundef nonnull %79) #18
  %81 = load ptr, ptr @conf, align 8
  %82 = getelementptr inbounds nuw i8, ptr %81, i64 4228
  %83 = load i32, ptr %82, align 4
  %84 = urem i32 %83, 60
  %85 = udiv i32 %83, 60
  %86 = urem i32 %85, 60
  %87 = udiv i32 %83, 3600
  %88 = urem i32 %87, 24
  %89 = udiv i32 %83, 86400
  %90 = call i32 (ptr, ...) @printf(ptr noundef nonnull dereferenceable(1) @.str.142, i32 noundef %89, i32 noundef %88, i32 noundef %86, i32 noundef %84)
  call void @llvm.lifetime.end.p0(i64 32, ptr nonnull %4) #18
  call void @llvm.lifetime.end.p0(i64 8, ptr nonnull %3) #18
  call void @llvm.lifetime.end.p0(i64 8, ptr nonnull %2) #18
  call void @llvm.lifetime.end.p0(i64 128, ptr nonnull %1) #18
  ret void
}